	.file	"fib.cpp"
	.text
	.def	__tcf_0;	.scl	3;	.type	32;	.endef
	.seh_proc	__tcf_0
__tcf_0:
.LFB2085:
	.seh_endprologue
	leaq	_ZStL8__ioinit(%rip), %rcx
	jmp	_ZNSt8ios_base4InitD1Ev
	.seh_endproc
	.section .rdata,"dr"
.LC0:
	.ascii " \0"
	.text
	.globl	_Z14printFibonaccii
	.def	_Z14printFibonaccii;	.scl	2;	.type	32;	.endef
	.seh_proc	_Z14printFibonaccii
_Z14printFibonaccii:
.LFB1594:
	pushq	%r12
	.seh_pushreg	%r12
	pushq	%rbp
	.seh_pushreg	%rbp
	pushq	%rdi
	.seh_pushreg	%rdi
	pushq	%rsi
	.seh_pushreg	%rsi
	pushq	%rbx
	.seh_pushreg	%rbx
	subq	$32, %rsp
	.seh_stackalloc	32
	.seh_endprologue
	testl	%ecx, %ecx
	movl	%ecx, %edi
	jle	.L4
	movq	.refptr._ZSt4cout(%rip), %rcx
	movl	$1, %edx
	call	_ZNSo9_M_insertIyEERSoT_
	leaq	.LC0(%rip), %rdx
	movq	%rax, %rcx
	call	_ZStlsISt11char_traitsIcEERSt13basic_ostreamIcT_ES5_PKc
	cmpl	$1, %edi
	je	.L4
	movq	.refptr._ZSt4cout(%rip), %rcx
	movl	$1, %edx
	call	_ZNSo9_M_insertIyEERSoT_
	leaq	.LC0(%rip), %rdx
	movq	%rax, %rcx
	call	_ZStlsISt11char_traitsIcEERSt13basic_ostreamIcT_ES5_PKc
.L4:
	movl	$3, %esi
	movl	$1, %ebx
	movl	$1, %eax
	leaq	.LC0(%rip), %r12
.L7:
	cmpl	%edi, %esi
	jg	.L2
	movq	.refptr._ZSt4cout(%rip), %rcx
	leaq	(%rax,%rbx), %rbp
	incl	%esi
	movq	%rbp, %rdx
	call	_ZNSo9_M_insertIyEERSoT_
	movq	%r12, %rdx
	movq	%rax, %rcx
	call	_ZStlsISt11char_traitsIcEERSt13basic_ostreamIcT_ES5_PKc
	movq	%rbx, %rax
	movq	%rbp, %rbx
	jmp	.L7
.L2:
	addq	$32, %rsp
	popq	%rbx
	popq	%rsi
	popq	%rdi
	popq	%rbp
	popq	%r12
	ret
	.seh_endproc
	.def	__main;	.scl	2;	.type	32;	.endef
	.section .rdata,"dr"
.LC1:
	.ascii "Error: Enter a positive integer\0"
	.section	.text.startup,"x"
	.globl	main
	.def	main;	.scl	2;	.type	32;	.endef
	.seh_proc	main
main:
.LFB1595:
	subq	$56, %rsp
	.seh_stackalloc	56
	.seh_endprologue
	call	__main
	movq	.refptr._ZSt3cin(%rip), %rcx
	leaq	44(%rsp), %rdx
	call	_ZNSirsERi
	movl	44(%rsp), %ecx
	testl	%ecx, %ecx
	jg	.L13
	movq	.refptr._ZSt4cout(%rip), %rcx
	leaq	.LC1(%rip), %rdx
	call	_ZStlsISt11char_traitsIcEERSt13basic_ostreamIcT_ES5_PKc
	movq	%rax, %rcx
	call	_ZSt4endlIcSt11char_traitsIcEERSt13basic_ostreamIT_T0_ES6_
	movl	$1, %eax
	jmp	.L12
.L13:
	call	_Z14printFibonaccii
	movq	.refptr._ZSt4cout(%rip), %rcx
	call	_ZSt4endlIcSt11char_traitsIcEERSt13basic_ostreamIT_T0_ES6_
	xorl	%eax, %eax
.L12:
	addq	$56, %rsp
	ret
	.seh_endproc
	.def	_GLOBAL__sub_I__Z14printFibonaccii;	.scl	3;	.type	32;	.endef
	.seh_proc	_GLOBAL__sub_I__Z14printFibonaccii
_GLOBAL__sub_I__Z14printFibonaccii:
.LFB2086:
	subq	$40, %rsp
	.seh_stackalloc	40
	.seh_endprologue
	leaq	_ZStL8__ioinit(%rip), %rcx
	call	_ZNSt8ios_base4InitC1Ev
	leaq	__tcf_0(%rip), %rcx
	addq	$40, %rsp
	jmp	atexit
	.seh_endproc
	.section	.ctors,"w"
	.align 8
	.quad	_GLOBAL__sub_I__Z14printFibonaccii
.lcomm _ZStL8__ioinit,1,1
	.ident	"GCC: (x86_64-posix-seh-rev0, Built by MinGW-W64 project) 8.1.0"
	.def	_ZNSt8ios_base4InitD1Ev;	.scl	2;	.type	32;	.endef
	.def	_ZNSo9_M_insertIyEERSoT_;	.scl	2;	.type	32;	.endef
	.def	_ZStlsISt11char_traitsIcEERSt13basic_ostreamIcT_ES5_PKc;	.scl	2;	.type	32;	.endef
	.def	_ZNSirsERi;	.scl	2;	.type	32;	.endef
	.def	_ZSt4endlIcSt11char_traitsIcEERSt13basic_ostreamIT_T0_ES6_;	.scl	2;	.type	32;	.endef
	.def	_ZNSt8ios_base4InitC1Ev;	.scl	2;	.type	32;	.endef
	.def	atexit;	.scl	2;	.type	32;	.endef
	.section	.rdata$.refptr._ZSt3cin, "dr"
	.globl	.refptr._ZSt3cin
	.linkonce	discard
.refptr._ZSt3cin:
	.quad	_ZSt3cin
	.section	.rdata$.refptr._ZSt4cout, "dr"
	.globl	.refptr._ZSt4cout
	.linkonce	discard
.refptr._ZSt4cout:
	.quad	_ZSt4cout
